target datalayout = "e-m:e-p270:32:32-p271:32:32-p272:64:64-i64:64-i128:128-f80:128-n8:16:32:64-S128"
target triple = "x86_64-pc-linux-gnu"

%struct._timelib_time = type { i64, i64, i64, i64, i64, i64, i64, i32, ptr, ptr, i32, %struct._timelib_rel_time, i64, i32, i32, i32, i32, i32, i32, i32, i32, i32 }
%struct._timelib_rel_time = type { i64, i64, i64, i64, i64, i64, i64, i32, i32, i32, i32, i64, %struct.anon, i32, i32 }
%struct.anon = type { i32, i64 }

; Function Attrs: nounwind uwtable
define hidden ptr @timelib_sub(ptr noundef %0, ptr noundef %1) #0 {
  %3 = alloca ptr, align 8
  %4 = alloca ptr, align 8
  %5 = alloca i32, align 4
  %6 = alloca ptr, align 8
  store ptr %0, ptr %3, align 8, !tbaa !4
  store ptr %1, ptr %4, align 8, !tbaa !29
  call void @llvm.lifetime.start.p0(i64 4, ptr %5) #7
  store i32 1, ptr %5, align 4, !tbaa !51
  call void @llvm.lifetime.start.p0(i64 8, ptr %6) #7
  %7 = load ptr, ptr %3, align 8, !tbaa !4
  %8 = call ptr @timelib_time_clone(ptr noundef %7)
  store ptr %8, ptr %6, align 8, !tbaa !4
  %9 = load ptr, ptr %4, align 8, !tbaa !29
  %10 = getelementptr inbounds nuw %struct._timelib_rel_time, ptr %9, i32 0, i32 10
  %11 = load i32, ptr %10, align 4, !tbaa !31
  %12 = icmp ne i32 %11, 0
  br i1 %12, label %13, label %14

13:                                               ; preds = %2
  store i32 -1, ptr %5, align 4, !tbaa !51
  br label %14

14:                                               ; preds = %13, %2
  %15 = load ptr, ptr %6, align 8, !tbaa !4
  %16 = getelementptr inbounds nuw %struct._timelib_time, ptr %15, i32 0, i32 11
  call void @llvm.memset.p0.i64(ptr align 8 %16, i8 0, i64 104, i1 false)
  %17 = load ptr, ptr %4, align 8, !tbaa !29
  %18 = getelementptr inbounds nuw %struct._timelib_rel_time, ptr %17, i32 0, i32 0
  %19 = load i64, ptr %18, align 8, !tbaa !33
  %20 = load i32, ptr %5, align 4, !tbaa !51
  %21 = sext i32 %20 to i64
  %22 = mul i64 %19, %21
  %23 = sub i64 0, %22
  %24 = load ptr, ptr %6, align 8, !tbaa !4
  %25 = getelementptr inbounds nuw %struct._timelib_time, ptr %24, i32 0, i32 11
  %26 = getelementptr inbounds nuw %struct._timelib_rel_time, ptr %25, i32 0, i32 0
  store i64 %23, ptr %26, align 8, !tbaa !57
  %27 = load ptr, ptr %4, align 8, !tbaa !29
  %28 = getelementptr inbounds nuw %struct._timelib_rel_time, ptr %27, i32 0, i32 1
  %29 = load i64, ptr %28, align 8, !tbaa !35
  %30 = load i32, ptr %5, align 4, !tbaa !51
  %31 = sext i32 %30 to i64
  %32 = mul i64 %29, %31
  %33 = sub i64 0, %32
  %34 = load ptr, ptr %6, align 8, !tbaa !4
  %35 = getelementptr inbounds nuw %struct._timelib_time, ptr %34, i32 0, i32 11
  %36 = getelementptr inbounds nuw %struct._timelib_rel_time, ptr %35, i32 0, i32 1
  store i64 %33, ptr %36, align 8, !tbaa !58
  %37 = load ptr, ptr %4, align 8, !tbaa !29
  %38 = getelementptr inbounds nuw %struct._timelib_rel_time, ptr %37, i32 0, i32 2
  %39 = load i64, ptr %38, align 8, !tbaa !37
  %40 = load i32, ptr %5, align 4, !tbaa !51
  %41 = sext i32 %40 to i64
  %42 = mul i64 %39, %41
  %43 = sub i64 0, %42
  %44 = load ptr, ptr %6, align 8, !tbaa !4
  %45 = getelementptr inbounds nuw %struct._timelib_time, ptr %44, i32 0, i32 11
  %46 = getelementptr inbounds nuw %struct._timelib_rel_time, ptr %45, i32 0, i32 2
  store i64 %43, ptr %46, align 8, !tbaa !59
  %47 = load ptr, ptr %4, align 8, !tbaa !29
  %48 = getelementptr inbounds nuw %struct._timelib_rel_time, ptr %47, i32 0, i32 3
  %49 = load i64, ptr %48, align 8, !tbaa !39
  %50 = load i32, ptr %5, align 4, !tbaa !51
  %51 = sext i32 %50 to i64
  %52 = mul i64 %49, %51
  %53 = sub i64 0, %52
  %54 = load ptr, ptr %6, align 8, !tbaa !4
  %55 = getelementptr inbounds nuw %struct._timelib_time, ptr %54, i32 0, i32 11
  %56 = getelementptr inbounds nuw %struct._timelib_rel_time, ptr %55, i32 0, i32 3
  store i64 %53, ptr %56, align 8, !tbaa !60
  %57 = load ptr, ptr %4, align 8, !tbaa !29
  %58 = getelementptr inbounds nuw %struct._timelib_rel_time, ptr %57, i32 0, i32 4
  %59 = load i64, ptr %58, align 8, !tbaa !42
  %60 = load i32, ptr %5, align 4, !tbaa !51
  %61 = sext i32 %60 to i64
  %62 = mul i64 %59, %61
  %63 = sub i64 0, %62
  %64 = load ptr, ptr %6, align 8, !tbaa !4
  %65 = getelementptr inbounds nuw %struct._timelib_time, ptr %64, i32 0, i32 11
  %66 = getelementptr inbounds nuw %struct._timelib_rel_time, ptr %65, i32 0, i32 4
  store i64 %63, ptr %66, align 8, !tbaa !61
  %67 = load ptr, ptr %4, align 8, !tbaa !29
  %68 = getelementptr inbounds nuw %struct._timelib_rel_time, ptr %67, i32 0, i32 5
  %69 = load i64, ptr %68, align 8, !tbaa !45
  %70 = load i32, ptr %5, align 4, !tbaa !51
  %71 = sext i32 %70 to i64
  %72 = mul i64 %69, %71
  %73 = sub i64 0, %72
  %74 = load ptr, ptr %6, align 8, !tbaa !4
  %75 = getelementptr inbounds nuw %struct._timelib_time, ptr %74, i32 0, i32 11
  %76 = getelementptr inbounds nuw %struct._timelib_rel_time, ptr %75, i32 0, i32 5
  store i64 %73, ptr %76, align 8, !tbaa !62
  %77 = load ptr, ptr %4, align 8, !tbaa !29
  %78 = getelementptr inbounds nuw %struct._timelib_rel_time, ptr %77, i32 0, i32 6
  %79 = load i64, ptr %78, align 8, !tbaa !47
  %80 = load i32, ptr %5, align 4, !tbaa !51
  %81 = sext i32 %80 to i64
  %82 = mul i64 %79, %81
  %83 = sub i64 0, %82
  %84 = load ptr, ptr %6, align 8, !tbaa !4
  %85 = getelementptr inbounds nuw %struct._timelib_time, ptr %84, i32 0, i32 11
  %86 = getelementptr inbounds nuw %struct._timelib_rel_time, ptr %85, i32 0, i32 6
  store i64 %83, ptr %86, align 8, !tbaa !63
  %87 = load ptr, ptr %6, align 8, !tbaa !4
  %88 = getelementptr inbounds nuw %struct._timelib_time, ptr %87, i32 0, i32 16
  store i32 1, ptr %88, align 4, !tbaa !64
  %89 = load ptr, ptr %6, align 8, !tbaa !4
  %90 = getelementptr inbounds nuw %struct._timelib_time, ptr %89, i32 0, i32 18
  store i32 0, ptr %90, align 4, !tbaa !65
  %91 = load ptr, ptr %6, align 8, !tbaa !4
  call void @timelib_update_ts(ptr noundef %91, ptr noundef null)
  %92 = load ptr, ptr %6, align 8, !tbaa !4
  call void @timelib_update_from_sse(ptr noundef %92)
  %93 = load ptr, ptr %6, align 8, !tbaa !4
  %94 = getelementptr inbounds nuw %struct._timelib_time, ptr %93, i32 0, i32 16
  store i32 0, ptr %94, align 4, !tbaa !64
  %95 = load ptr, ptr %6, align 8, !tbaa !4
  call void @llvm.lifetime.end.p0(i64 8, ptr %6) #7
  call void @llvm.lifetime.end.p0(i64 4, ptr %5) #7
  ret ptr %95
}