; Function Attrs: nounwind uwtable
define hidden ptr @timelib_sub(ptr noundef %0, ptr noundef readonly captures(none) %1) local_unnamed_addr #0 {
  %3 = tail call ptr @timelib_time_clone(ptr noundef %0) #9
  %4 = getelementptr inbounds nuw i8, ptr %1, i64 68
  %5 = load i32, ptr %4, align 4, !tbaa !29
  %.not = icmp eq i32 %5, 0
  %6 = getelementptr inbounds nuw i8, ptr %3, i64 88
  tail call void @llvm.memset.p0.i64(ptr noundef nonnull align 8 dereferenceable(104) %6, i8 0, i64 104, i1 false)
  %7 = load i64, ptr %1, align 8, !tbaa !32
  %8 = sub i64 0, %7
  %.neg = select i1 %.not, i64 %8, i64 %7
  store i64 %.neg, ptr %6, align 8, !tbaa !53
  %9 = getelementptr inbounds nuw i8, ptr %1, i64 8
  %10 = load i64, ptr %9, align 8, !tbaa !34
  %11 = sub i64 0, %10
  %.neg29 = select i1 %.not, i64 %11, i64 %10
  %12 = getelementptr inbounds nuw i8, ptr %3, i64 96
  store i64 %.neg29, ptr %12, align 8, !tbaa !54
  %13 = getelementptr inbounds nuw i8, ptr %1, i64 16
  %14 = load i64, ptr %13, align 8, !tbaa !36
  %15 = sub i64 0, %14
  %.neg30 = select i1 %.not, i64 %15, i64 %14
  %16 = getelementptr inbounds nuw i8, ptr %3, i64 104
  store i64 %.neg30, ptr %16, align 8, !tbaa !55
  %17 = getelementptr inbounds nuw i8, ptr %1, i64 24
  %18 = load i64, ptr %17, align 8, !tbaa !38
  %19 = sub i64 0, %18
  %.neg31 = select i1 %.not, i64 %19, i64 %18
  %20 = getelementptr inbounds nuw i8, ptr %3, i64 112
  store i64 %.neg31, ptr %20, align 8, !tbaa !56
  %21 = getelementptr inbounds nuw i8, ptr %1, i64 32
  %22 = load i64, ptr %21, align 8, !tbaa !40
  %23 = sub i64 0, %22
  %.neg32 = select i1 %.not, i64 %23, i64 %22
  %24 = getelementptr inbounds nuw i8, ptr %3, i64 120
  store i64 %.neg32, ptr %24, align 8, !tbaa !57
  %25 = getelementptr inbounds nuw i8, ptr %1, i64 40
  %26 = load i64, ptr %25, align 8, !tbaa !42
  %27 = sub i64 0, %26
  %.neg33 = select i1 %.not, i64 %27, i64 %26
  %28 = getelementptr inbounds nuw i8, ptr %3, i64 128
  store i64 %.neg33, ptr %28, align 8, !tbaa !58
  %29 = getelementptr inbounds nuw i8, ptr %1, i64 48
  %30 = load i64, ptr %29, align 8, !tbaa !44
  %31 = sub i64 0, %30
  %32 = select i1 %.not, i64 %31, i64 %30
  %33 = getelementptr inbounds nuw i8, ptr %3, i64 136
  store i64 %32, ptr %33, align 8, !tbaa !59
  %34 = getelementptr inbounds nuw i8, ptr %3, i64 212
  store i32 1, ptr %34, align 4, !tbaa !60
  %35 = getelementptr inbounds nuw i8, ptr %3, i64 220
  store i32 0, ptr %35, align 4, !tbaa !61
  tail call void @timelib_update_ts(ptr noundef %3, ptr noundef null) #9
  tail call void @timelib_update_from_sse(ptr noundef %3) #9
  store i32 0, ptr %34, align 4, !tbaa !60
  ret ptr %3
}